; Function Attrs: mustprogress nounwind uwtable
define hidden void @_ZNK22ShenandoahBarrierSetC231register_potential_barrier_nodeEP4Node(ptr nocapture nonnull readnone align 8 %0, ptr noundef %1) unnamed_addr #1 align 2 {
  %3 = load ptr, ptr %1, align 8
  %4 = load ptr, ptr %3, align 8
  %5 = tail call noundef i32 %4(ptr noundef nonnull align 8 dereferenceable(52) %1) #14
  %6 = icmp eq i32 %5, 309
  br i1 %6, label %7, label %37

7:                                                ; preds = %2
  %8 = tail call align 8 ptr @llvm.threadlocal.address.p0(ptr align 8 @_ZN6Thread12_thr_currentE)
  %9 = load ptr, ptr %8, align 8
  %10 = getelementptr inbounds i8, ptr %9, i64 1808
  %11 = load ptr, ptr %10, align 8
  %12 = getelementptr inbounds i8, ptr %11, i64 128
  %13 = load ptr, ptr %12, align 8
  %14 = getelementptr inbounds i8, ptr %13, i64 344
  %15 = load ptr, ptr %14, align 8
  %16 = load ptr, ptr %15, align 8
  %17 = load i32, ptr %16, align 8
  %18 = getelementptr inbounds i8, ptr %16, i64 4
  %19 = load i32, ptr %18, align 4
  %20 = icmp eq i32 %17, %19
  br i1 %20, label %21, label %_ZN27ShenandoahBarrierSetC2State14add_iu_barrierEP23ShenandoahIUBarrierNode.exit

21:                                               ; preds = %7
  %22 = add nsw i32 %17, 1
  %23 = icmp sgt i32 %17, -1
  %24 = xor i32 %17, -2147483648
  %25 = and i32 %24, %22
  %26 = icmp eq i32 %25, 0
  %27 = and i1 %23, %26
  %28 = tail call range(i32 0, 33) i32 @llvm.ctlz.i32(i32 %22, i1 true)
  %29 = sub nuw nsw i32 32, %28
  %30 = shl nuw i32 1, %29
  %.0.i.i.i.i.i = select i1 %27, i32 %22, i32 %30
  tail call void @_ZN26GrowableArrayWithAllocatorIP23ShenandoahIUBarrierNode13GrowableArrayIS1_EE9expand_toEi(ptr noundef nonnull align 8 dereferenceable(16) %16, i32 noundef %.0.i.i.i.i.i)
  %.pre.i.i = load i32, ptr %16, align 8
  br label %_ZN27ShenandoahBarrierSetC2State14add_iu_barrierEP23ShenandoahIUBarrierNode.exit

_ZN27ShenandoahBarrierSetC2State14add_iu_barrierEP23ShenandoahIUBarrierNode.exit: ; preds = %7, %21
  %31 = phi i32 [ %.pre.i.i, %21 ], [ %17, %7 ]
  %32 = add nsw i32 %31, 1
  store i32 %32, ptr %16, align 8
  %33 = getelementptr inbounds i8, ptr %16, i64 8
  %34 = load ptr, ptr %33, align 8
  %35 = sext i32 %31 to i64
  %36 = getelementptr inbounds ptr, ptr %34, i64 %35
  store ptr %1, ptr %36, align 8
  br label %37

37:                                               ; preds = %_ZN27ShenandoahBarrierSetC2State14add_iu_barrierEP23ShenandoahIUBarrierNode.exit, %2
  %38 = load ptr, ptr %1, align 8
  %39 = load ptr, ptr %38, align 8
  %40 = tail call noundef i32 %39(ptr noundef nonnull align 8 dereferenceable(52) %1) #14
  %41 = icmp eq i32 %40, 310
  br i1 %41, label %42, label %73

42:                                               ; preds = %37
  %43 = tail call align 8 ptr @llvm.threadlocal.address.p0(ptr align 8 @_ZN6Thread12_thr_currentE)
  %44 = load ptr, ptr %43, align 8
  %45 = getelementptr inbounds i8, ptr %44, i64 1808
  %46 = load ptr, ptr %45, align 8
  %47 = getelementptr inbounds i8, ptr %46, i64 128
  %48 = load ptr, ptr %47, align 8
  %49 = getelementptr inbounds i8, ptr %48, i64 344
  %50 = load ptr, ptr %49, align 8
  %51 = getelementptr inbounds i8, ptr %50, i64 8
  %52 = load ptr, ptr %51, align 8
  %53 = load i32, ptr %52, align 8
  %54 = getelementptr inbounds i8, ptr %52, i64 4
  %55 = load i32, ptr %54, align 4
  %56 = icmp eq i32 %53, %55
  br i1 %56, label %57, label %_ZN27ShenandoahBarrierSetC2State26add_load_reference_barrierEP34ShenandoahLoadReferenceBarrierNode.exit

57:                                               ; preds = %42
  %58 = add nsw i32 %53, 1
  %59 = icmp sgt i32 %53, -1
  %60 = xor i32 %53, -2147483648
  %61 = and i32 %60, %58
  %62 = icmp eq i32 %61, 0
  %63 = and i1 %59, %62
  %64 = tail call range(i32 0, 33) i32 @llvm.ctlz.i32(i32 %58, i1 true)
  %65 = sub nuw nsw i32 32, %64
  %66 = shl nuw i32 1, %65
  %.0.i.i.i.i.i5 = select i1 %63, i32 %58, i32 %66
  tail call void @_ZN26GrowableArrayWithAllocatorIP34ShenandoahLoadReferenceBarrierNode13GrowableArrayIS1_EE9expand_toEi(ptr noundef nonnull align 8 dereferenceable(16) %52, i32 noundef %.0.i.i.i.i.i5)
  %.pre.i.i6 = load i32, ptr %52, align 8
  br label %_ZN27ShenandoahBarrierSetC2State26add_load_reference_barrierEP34ShenandoahLoadReferenceBarrierNode.exit

_ZN27ShenandoahBarrierSetC2State26add_load_reference_barrierEP34ShenandoahLoadReferenceBarrierNode.exit: ; preds = %42, %57
  %67 = phi i32 [ %.pre.i.i6, %57 ], [ %53, %42 ]
  %68 = add nsw i32 %67, 1
  store i32 %68, ptr %52, align 8
  %69 = getelementptr inbounds i8, ptr %52, i64 8
  %70 = load ptr, ptr %69, align 8
  %71 = sext i32 %67 to i64
  %72 = getelementptr inbounds ptr, ptr %70, i64 %71
  store ptr %1, ptr %72, align 8
  br label %73

73:                                               ; preds = %_ZN27ShenandoahBarrierSetC2State26add_load_reference_barrierEP34ShenandoahLoadReferenceBarrierNode.exit, %37
  ret void
}